target datalayout = "e-m:e-p270:32:32-p271:32:32-p272:64:64-i64:64-i128:128-f80:128-n8:16:32:64-S128"
target triple = "x86_64-pc-linux-gnu"

%struct.ACLCategoryItem = type { ptr, i64 }

@nextCommandCategory = internal global i64 0, align 8
@ACLCommandCategories = internal global ptr null, align 8
@.str.21 = private unnamed_addr constant [96 x i8] c"ACLAddCommandCategory(ACLDefaultCommandCategories[j].name, ACLDefaultCommandCategories[j].flag)\00", align 1
@.str.22 = private unnamed_addr constant [6 x i8] c"acl.c\00", align 1

; Function Attrs: nounwind uwtable
define dso_local i32 @ACLAddCommandCategory(ptr noundef %0, i64 noundef %1) #0 {
  %3 = alloca i32, align 4
  %4 = alloca ptr, align 8
  %5 = alloca i64, align 8
  store ptr %0, ptr %4, align 8, !tbaa !5
  store i64 %1, ptr %5, align 8, !tbaa !10
  %6 = load i64, ptr @nextCommandCategory, align 8, !tbaa !10
  %7 = icmp uge i64 %6, 64
  br i1 %7, label %8, label %9

8:                                                ; preds = %2
  store i32 0, ptr %3, align 4
  br label %31

9:                                                ; preds = %2
  %10 = load ptr, ptr %4, align 8, !tbaa !5
  %11 = call noalias ptr @zstrdup(ptr noundef %10)
  %12 = load ptr, ptr @ACLCommandCategories, align 8, !tbaa !12
  %13 = load i64, ptr @nextCommandCategory, align 8, !tbaa !10
  %14 = getelementptr inbounds nuw %struct.ACLCategoryItem, ptr %12, i64 %13
  %15 = getelementptr inbounds nuw %struct.ACLCategoryItem, ptr %14, i32 0, i32 0
  store ptr %11, ptr %15, align 8, !tbaa !14
  %16 = load i64, ptr %5, align 8, !tbaa !10
  %17 = icmp ne i64 %16, 0
  br i1 %17, label %18, label %20

18:                                               ; preds = %9
  %19 = load i64, ptr %5, align 8, !tbaa !10
  br label %23

20:                                               ; preds = %9
  %21 = load i64, ptr @nextCommandCategory, align 8, !tbaa !10
  %22 = shl i64 1, %21
  br label %23

23:                                               ; preds = %20, %18
  %24 = phi i64 [ %19, %18 ], [ %22, %20 ]
  %25 = load ptr, ptr @ACLCommandCategories, align 8, !tbaa !12
  %26 = load i64, ptr @nextCommandCategory, align 8, !tbaa !10
  %27 = getelementptr inbounds nuw %struct.ACLCategoryItem, ptr %25, i64 %26
  %28 = getelementptr inbounds nuw %struct.ACLCategoryItem, ptr %27, i32 0, i32 1
  store i64 %24, ptr %28, align 8, !tbaa !16
  %29 = load i64, ptr @nextCommandCategory, align 8, !tbaa !10
  %30 = add i64 %29, 1
  store i64 %30, ptr @nextCommandCategory, align 8, !tbaa !10
  store i32 1, ptr %3, align 4
  br label %31

31:                                               ; preds = %23, %8
  %32 = load i32, ptr %3, align 4
  ret i32 %32
}

; Function Attrs: nounwind uwtable
define dso_local void @ACLInitCommandCategories() #0 {
  %1 = alloca i32, align 4
  %2 = call noalias ptr @zcalloc(i64 noundef 1040) #13
  store ptr %2, ptr @ACLCommandCategories, align 8, !tbaa !12
  call void @llvm.lifetime.start.p0(i64 4, ptr %1) #14
  store i32 0, ptr %1, align 4, !tbaa !17
  br label %3

3:                                                ; preds = %34, %0
  %4 = load i32, ptr %1, align 4, !tbaa !17
  %5 = sext i32 %4 to i64
  %6 = getelementptr inbounds [22 x %struct.ACLCategoryItem], ptr @ACLDefaultCommandCategories, i64 0, i64 %5
  %7 = getelementptr inbounds nuw %struct.ACLCategoryItem, ptr %6, i32 0, i32 1
  %8 = load i64, ptr %7, align 8, !tbaa !16
  %9 = icmp ne i64 %8, 0
  br i1 %9, label %11, label %10

10:                                               ; preds = %3
  call void @llvm.lifetime.end.p0(i64 4, ptr %1) #14
  br label %37

11:                                               ; preds = %3
  %12 = load i32, ptr %1, align 4, !tbaa !17
  %13 = sext i32 %12 to i64
  %14 = getelementptr inbounds [22 x %struct.ACLCategoryItem], ptr @ACLDefaultCommandCategories, i64 0, i64 %13
  %15 = getelementptr inbounds nuw %struct.ACLCategoryItem, ptr %14, i32 0, i32 0
  %16 = load ptr, ptr %15, align 16, !tbaa !14
  %17 = load i32, ptr %1, align 4, !tbaa !17
  %18 = sext i32 %17 to i64
  %19 = getelementptr inbounds [22 x %struct.ACLCategoryItem], ptr @ACLDefaultCommandCategories, i64 0, i64 %18
  %20 = getelementptr inbounds nuw %struct.ACLCategoryItem, ptr %19, i32 0, i32 1
  %21 = load i64, ptr %20, align 8, !tbaa !16
  %22 = call i32 @ACLAddCommandCategory(ptr noundef %16, i64 noundef %21)
  %23 = icmp ne i32 %22, 0
  %24 = xor i1 %23, true
  %25 = xor i1 %24, true
  %26 = zext i1 %25 to i32
  %27 = sext i32 %26 to i64
  %28 = call i64 @llvm.expect.i64(i64 %27, i64 1)
  %29 = icmp ne i64 %28, 0
  br i1 %29, label %30, label %31

30:                                               ; preds = %11
  br label %33

31:                                               ; preds = %11
  call void @_serverAssert(ptr noundef @.str.21, ptr noundef @.str.22, i32 noundef 102)
  call void @abort() #15
  unreachable

32:                                               ; No predecessors!
  br label %33

33:                                               ; preds = %32, %30
  br label %34

34:                                               ; preds = %33
  %35 = load i32, ptr %1, align 4, !tbaa !17
  %36 = add nsw i32 %35, 1
  store i32 %36, ptr %1, align 4, !tbaa !17
  br label %3, !llvm.loop !19

37:                                               ; preds = %10
  ret void
}