; Function Attrs: nounwind uwtable
define dso_local void @ACLInitCommandCategories() local_unnamed_addr #0 {
  %1 = tail call noalias dereferenceable_or_null(1040) ptr @zcalloc(i64 noundef 1040) #26
  store ptr %1, ptr @ACLCommandCategories, align 8, !tbaa !9
  %2 = load i64, ptr getelementptr inbounds nuw (i8, ptr @ACLDefaultCommandCategories, i64 8), align 8, !tbaa !15
  %.not8 = icmp eq i64 %2, 0
  br i1 %.not8, label %._crit_edge, label %.lr.ph.preheader

.lr.ph.preheader:                                 ; preds = %0
  %.pre = load i64, ptr @nextCommandCategory, align 8, !tbaa !5
  br label %.lr.ph

._crit_edge:                                      ; preds = %8, %0
  ret void

.lr.ph:                                           ; preds = %.lr.ph.preheader, %8
  %3 = phi i64 [ %.pre, %.lr.ph.preheader ], [ %15, %8 ]
  %indvars.iv = phi i64 [ 0, %.lr.ph.preheader ], [ %indvars.iv.next, %8 ]
  %4 = phi i64 [ %2, %.lr.ph.preheader ], [ %18, %8 ]
  %5 = phi ptr [ @ACLDefaultCommandCategories, %.lr.ph.preheader ], [ %16, %8 ]
  %6 = icmp ugt i64 %3, 63
  br i1 %6, label %7, label %8

7:                                                ; preds = %.lr.ph
  tail call void @_serverAssert(ptr noundef nonnull @.str.21, ptr noundef nonnull @.str.22, i32 noundef 102) #25
  tail call void @abort() #27
  unreachable

8:                                                ; preds = %.lr.ph
  %9 = load ptr, ptr %5, align 16, !tbaa !12
  %10 = tail call noalias ptr @zstrdup(ptr noundef %9) #25
  %11 = load ptr, ptr @ACLCommandCategories, align 8, !tbaa !9
  %12 = load i64, ptr @nextCommandCategory, align 8, !tbaa !5
  %13 = getelementptr inbounds nuw %struct.ACLCategoryItem, ptr %11, i64 %12
  store ptr %10, ptr %13, align 8, !tbaa !12
  %14 = getelementptr inbounds nuw %struct.ACLCategoryItem, ptr %11, i64 %12, i32 1
  store i64 %4, ptr %14, align 8, !tbaa !15
  %15 = add i64 %12, 1
  store i64 %15, ptr @nextCommandCategory, align 8, !tbaa !5
  %indvars.iv.next = add nuw nsw i64 %indvars.iv, 1
  %16 = getelementptr inbounds nuw [22 x %struct.ACLCategoryItem], ptr @ACLDefaultCommandCategories, i64 0, i64 %indvars.iv.next
  %17 = getelementptr inbounds nuw i8, ptr %16, i64 8
  %18 = load i64, ptr %17, align 8, !tbaa !15
  %.not = icmp eq i64 %18, 0
  br i1 %.not, label %._crit_edge, label %.lr.ph, !llvm.loop !16
}